target datalayout = "e-m:e-p270:32:32-p271:32:32-p272:64:64-i64:64-i128:128-f80:128-n8:16:32:64-S128"
target triple = "x86_64-pc-linux-gnu"

@_ZN3nix6loggerE = external global ptr, align 8
@_ZTIN3nix6LoggerE = external constant ptr
@_ZTIN3nix11ProgressBarE = linkonce_odr constant { ptr, ptr, ptr } { ptr getelementptr inbounds (ptr, ptr @_ZTVN10__cxxabiv120__si_class_type_infoE, i64 2), ptr @_ZTSN3nix11ProgressBarE, ptr @_ZTIN3nix6LoggerE }, comdat, align 8

; Function Attrs: mustprogress uwtable
define void @_ZN3nix15stopProgressBarEv() #5 {
  %1 = alloca ptr, align 8
  %2 = load ptr, ptr @_ZN3nix6loggerE, align 8
  %3 = icmp eq ptr %2, null
  br i1 %3, label %6, label %4

4:                                                ; preds = %0
  %5 = call ptr @__dynamic_cast(ptr %2, ptr @_ZTIN3nix6LoggerE, ptr @_ZTIN3nix11ProgressBarE, i64 0) #1
  br label %7

6:                                                ; preds = %0
  br label %7

7:                                                ; preds = %6, %4
  %8 = phi ptr [ %5, %4 ], [ null, %6 ]
  store ptr %8, ptr %1, align 8
  %9 = load ptr, ptr %1, align 8
  %10 = icmp ne ptr %9, null
  br i1 %10, label %11, label %13

11:                                               ; preds = %7
  %12 = load ptr, ptr %1, align 8
  call void @_ZN3nix11ProgressBar4stopEv(ptr noundef nonnull align 8 dereferenceable(314) %12)
  br label %13

13:                                               ; preds = %11, %7
  ret void
}