; Function Attrs: mustprogress uwtable
define void @_ZN3nix15stopProgressBarEv() local_unnamed_addr #4 {
  %1 = load ptr, ptr @_ZN3nix6loggerE, align 8
  %2 = icmp eq ptr %1, null
  br i1 %2, label %.thread, label %3

3:                                                ; preds = %0
  %4 = tail call ptr @__dynamic_cast(ptr nonnull %1, ptr nonnull @_ZTIN3nix6LoggerE, ptr nonnull @_ZTIN3nix11ProgressBarE, i64 0) #22
  %.not = icmp eq ptr %4, null
  br i1 %.not, label %.thread, label %5

5:                                                ; preds = %3
  tail call void @_ZN3nix11ProgressBar4stopEv(ptr noundef nonnull align 8 dereferenceable(314) %4)
  br label %.thread

.thread:                                          ; preds = %0, %5, %3
  ret void
}